target datalayout = "e-m:e-p270:32:32-p271:32:32-p272:64:64-i64:64-i128:128-f80:128-n8:16:32:64-S128"
target triple = "x86_64-pc-linux-gnu"

%struct.nstime_t = type { i64, i32 }
%struct._packet_info = type { ptr, ptr, i32, i32, %struct.nstime_t, %struct.nstime_t, %struct.nstime_t, i8, ptr, ptr, ptr, ptr, %struct._address, %struct._address, %struct._address, %struct._address, %struct._address, %struct._address, i32, ptr, i8, [3 x i8], %struct.anon, i32, i32, i32, i32, ptr, i8, ptr, ptr, i16, i16, i32, i32, i16, i32, i32, ptr, ptr, ptr, i8, i8, i16, i16, i16, i32, i16, i16, ptr, ptr, ptr, ptr, ptr, i32, i32 }
%struct._address = type { i32, i32, ptr, ptr }
%struct.anon = type { i8, [3 x i8] }

@hf_afp_pad = internal global i32 0, align 4
@hf_afp_extattr_namelen = internal global i32 0, align 4
@hf_afp_extattr_name = internal global i32 0, align 4
@ett_afp_extattr_names = internal global i32 0, align 4

; Function Attrs: null_pointer_is_valid sspstrong uwtable
define internal i32 @decode_attr_name(ptr noundef %0, ptr noundef %1, ptr noundef %2, i32 noundef %3, ptr noundef %4) #1 {
  %6 = alloca ptr, align 8
  %7 = alloca ptr, align 8
  %8 = alloca ptr, align 8
  %9 = alloca i32, align 4
  %10 = alloca ptr, align 8
  %11 = alloca i32, align 4
  %12 = alloca ptr, align 8
  %13 = alloca ptr, align 8
  store ptr %0, ptr %6, align 8
  store ptr %1, ptr %7, align 8
  store ptr %2, ptr %8, align 8
  store i32 %3, ptr %9, align 4
  store ptr %4, ptr %10, align 8
  call void @llvm.lifetime.start.p0(i64 4, ptr %11) #8
  %14 = load i32, ptr %9, align 4
  %15 = and i32 %14, 1
  %16 = icmp ne i32 %15, 0
  br i1 %16, label %17, label %25

17:                                               ; preds = %5
  %18 = load ptr, ptr %6, align 8
  %19 = load i32, ptr @hf_afp_pad, align 4
  %20 = load ptr, ptr %8, align 8
  %21 = load i32, ptr %9, align 4
  %22 = call ptr @proto_tree_add_item(ptr noundef %18, i32 noundef %19, ptr noundef %20, i32 noundef %21, i32 noundef 1, i32 noundef 0)
  %23 = load i32, ptr %9, align 4
  %24 = add i32 %23, 1
  store i32 %24, ptr %9, align 4
  br label %25

25:                                               ; preds = %17, %5
  %26 = load ptr, ptr %8, align 8
  %27 = load i32, ptr %9, align 4
  %28 = call zeroext i16 @tvb_get_ntohs(ptr noundef %26, i32 noundef %27)
  %29 = zext i16 %28 to i32
  store i32 %29, ptr %11, align 4
  %30 = load ptr, ptr %6, align 8
  %31 = icmp ne ptr %30, null
  br i1 %31, label %32, label %62

32:                                               ; preds = %25
  call void @llvm.lifetime.start.p0(i64 8, ptr %12) #8
  call void @llvm.lifetime.start.p0(i64 8, ptr %13) #8
  %33 = load ptr, ptr %7, align 8
  %34 = getelementptr inbounds nuw %struct._packet_info, ptr %33, i32 0, i32 51
  %35 = load ptr, ptr %34, align 8
  %36 = load ptr, ptr %8, align 8
  %37 = load i32, ptr %9, align 4
  %38 = add i32 %37, 2
  %39 = load i32, ptr %11, align 4
  %40 = call ptr @tvb_format_text(ptr noundef %35, ptr noundef %36, i32 noundef %38, i32 noundef %39)
  store ptr %40, ptr %12, align 8
  %41 = load ptr, ptr %6, align 8
  %42 = load ptr, ptr %8, align 8
  %43 = load i32, ptr %9, align 4
  %44 = load i32, ptr %11, align 4
  %45 = add i32 %44, 2
  %46 = load i32, ptr @ett_afp_extattr_names, align 4
  %47 = load ptr, ptr %10, align 8
  %48 = load ptr, ptr %12, align 8
  %49 = call ptr (ptr, ptr, i32, i32, i32, ptr, ptr, ...) @proto_tree_add_subtree_format(ptr noundef %41, ptr noundef %42, i32 noundef %43, i32 noundef %45, i32 noundef %46, ptr noundef null, ptr noundef %47, ptr noundef %48)
  store ptr %49, ptr %13, align 8
  %50 = load ptr, ptr %13, align 8
  %51 = load i32, ptr @hf_afp_extattr_namelen, align 4
  %52 = load ptr, ptr %8, align 8
  %53 = load i32, ptr %9, align 4
  %54 = call ptr @proto_tree_add_item(ptr noundef %50, i32 noundef %51, ptr noundef %52, i32 noundef %53, i32 noundef 2, i32 noundef 0)
  %55 = load ptr, ptr %13, align 8
  %56 = load i32, ptr @hf_afp_extattr_name, align 4
  %57 = load ptr, ptr %8, align 8
  %58 = load i32, ptr %9, align 4
  %59 = add i32 %58, 2
  %60 = load i32, ptr %11, align 4
  %61 = call ptr @proto_tree_add_item(ptr noundef %55, i32 noundef %56, ptr noundef %57, i32 noundef %59, i32 noundef %60, i32 noundef 2)
  call void @llvm.lifetime.end.p0(i64 8, ptr %13) #8
  call void @llvm.lifetime.end.p0(i64 8, ptr %12) #8
  br label %62

62:                                               ; preds = %32, %25
  %63 = load i32, ptr %11, align 4
  %64 = add i32 2, %63
  %65 = load i32, ptr %9, align 4
  %66 = add i32 %65, %64
  store i32 %66, ptr %9, align 4
  %67 = load i32, ptr %9, align 4
  call void @llvm.lifetime.end.p0(i64 4, ptr %11) #8
  ret i32 %67
}