; Function Attrs: null_pointer_is_valid sspstrong uwtable
define internal fastcc i32 @decode_attr_name(ptr noundef %0, ptr noundef readonly captures(none) %1, ptr noundef %2, i32 noundef %3) unnamed_addr #1 {
  %5 = and i32 %3, 1
  %.not = icmp eq i32 %5, 0
  br i1 %.not, label %10, label %6

6:                                                ; preds = %4
  %7 = load i32, ptr @hf_afp_pad, align 4
  %8 = tail call ptr @proto_tree_add_item(ptr noundef %0, i32 noundef %7, ptr noundef %2, i32 noundef %3, i32 noundef 1, i32 noundef 0)
  %9 = add i32 %3, 1
  br label %10

10:                                               ; preds = %6, %4
  %.0 = phi i32 [ %9, %6 ], [ %3, %4 ]
  %11 = tail call zeroext i16 @tvb_get_ntohs(ptr noundef %2, i32 noundef %.0)
  %12 = zext i16 %11 to i32
  %.not28 = icmp eq ptr %0, null
  br i1 %.not28, label %._crit_edge, label %13

._crit_edge:                                      ; preds = %10
  %.pre = add i32 %.0, 2
  br label %25

13:                                               ; preds = %10
  %14 = getelementptr inbounds nuw i8, ptr %1, i64 408
  %15 = load ptr, ptr %14, align 8
  %16 = add i32 %.0, 2
  %17 = tail call ptr @tvb_format_text(ptr noundef %15, ptr noundef %2, i32 noundef %16, i32 noundef %12)
  %18 = add nuw nsw i32 %12, 2
  %19 = load i32, ptr @ett_afp_extattr_names, align 4
  %20 = tail call ptr (ptr, ptr, i32, i32, i32, ptr, ptr, ...) @proto_tree_add_subtree_format(ptr noundef nonnull %0, ptr noundef %2, i32 noundef %.0, i32 noundef %18, i32 noundef %19, ptr noundef null, ptr noundef nonnull @.str.1079, ptr noundef %17)
  %21 = load i32, ptr @hf_afp_extattr_namelen, align 4
  %22 = tail call ptr @proto_tree_add_item(ptr noundef %20, i32 noundef %21, ptr noundef %2, i32 noundef %.0, i32 noundef 2, i32 noundef 0)
  %23 = load i32, ptr @hf_afp_extattr_name, align 4
  %24 = tail call ptr @proto_tree_add_item(ptr noundef %20, i32 noundef %23, ptr noundef %2, i32 noundef %16, i32 noundef %12, i32 noundef 2)
  br label %25

25:                                               ; preds = %._crit_edge, %13
  %.pre-phi = phi i32 [ %.pre, %._crit_edge ], [ %16, %13 ]
  %26 = add i32 %.pre-phi, %12
  ret i32 %26
}